target datalayout = "e-m:e-p270:32:32-p271:32:32-p272:64:64-i64:64-i128:128-f80:128-n8:16:32:64-S128"
target triple = "x86_64-pc-linux-gnu"

%struct.darktable_t = type { %struct.dt_codepath_t, i32, i32, ptr, ptr, ptr, ptr, ptr, ptr, ptr, ptr, ptr, ptr, ptr, ptr, ptr, ptr, ptr, ptr, ptr, ptr, ptr, ptr, ptr, ptr, ptr, ptr, ptr, ptr, ptr, [64 x %struct.dt_pthread_mutex_t], %struct.dt_pthread_mutex_t, %struct.dt_pthread_mutex_t, %struct.dt_pthread_mutex_t, %struct.dt_pthread_mutex_t, %struct.dt_pthread_mutex_t, ptr, ptr, ptr, ptr, ptr, ptr, ptr, ptr, ptr, ptr, ptr, ptr, ptr, %struct.dt_lua_state_t, ptr, double, ptr, i32, [47 x i32], i32, i32, ptr, ptr, %struct.dt_sys_resources_t, %struct.dt_backthumb_t, %struct.dt_gimp_t }
%struct.dt_codepath_t = type { i8, [3 x i8] }
%struct.dt_pthread_mutex_t = type { %union.pthread_mutex_t }
%union.pthread_mutex_t = type { %struct.__pthread_mutex_s }
%struct.__pthread_mutex_s = type { i32, i32, i32, i32, i32, i16, i16, %struct.__pthread_internal_list }
%struct.__pthread_internal_list = type { ptr, ptr }
%struct.dt_lua_state_t = type { i32 }
%struct.dt_sys_resources_t = type { i64, i64, ptr, ptr, i32 }
%struct.dt_backthumb_t = type { double, double, i32, i32, i32, i32 }
%struct.dt_gimp_t = type { i32, ptr, ptr, i32, i32 }
%struct._GdkRGBA = type { double, double, double, double }
%struct.dt_gui_gtk_t = type { ptr, %struct.dt_gui_widgets_t, %struct.dt_gui_scrollbars_t, i32, ptr, i32, [39 x %struct._GdkRGBA], i32, i32, i32, i32, i32, double, double, double, double, ptr, double, double, double, double, i32, i32, [4096 x i8], i32, i32, i32, %struct.dt_pthread_mutex_t }
%struct.dt_gui_widgets_t = type { ptr, ptr, ptr, ptr, i32, i32, i32 }
%struct.dt_gui_scrollbars_t = type { ptr, ptr, i32 }

@darktable = external global %struct.darktable_t, align 8
@.str.219 = private unnamed_addr constant [40 x i8] c"[signal] raise %s; %s:%d, function %s()\00", align 1
@.str.220 = private unnamed_addr constant [33 x i8] c"DT_SIGNAL_DEVELOP_MIPMAP_UPDATED\00", align 1
@.str.221 = private unnamed_addr constant [111 x i8] c"generated/home/dtcxzyw/WorkSpace/Projects/compilers/llvm-opt-benchmark/bench/darktable/darktable/src/gui/gtk.c\00", align 1
@__FUNCTION__._focuspeaking_switch_button_callback = private unnamed_addr constant [37 x i8] c"_focuspeaking_switch_button_callback\00", align 1

; Function Attrs: inlinehint nounwind uwtable
define internal i32 @dt_pthread_mutex_unlock(ptr noundef %0) #4 {
  %2 = alloca ptr, align 8
  store ptr %0, ptr %2, align 8, !tbaa !74
  %3 = load ptr, ptr %2, align 8, !tbaa !74
  %4 = getelementptr inbounds nuw %struct.dt_pthread_mutex_t, ptr %3, i32 0, i32 0
  %5 = call i32 @pthread_mutex_unlock(ptr noundef %4) #15
  ret i32 %5
}

; Function Attrs: inlinehint nounwind uwtable
define internal i32 @dt_pthread_mutex_lock(ptr noundef %0) #4 {
  %2 = alloca ptr, align 8
  store ptr %0, ptr %2, align 8, !tbaa !74
  %3 = load ptr, ptr %2, align 8, !tbaa !74
  %4 = getelementptr inbounds nuw %struct.dt_pthread_mutex_t, ptr %3, i32 0, i32 0
  %5 = call i32 @pthread_mutex_lock(ptr noundef %4) #15
  ret i32 %5
}

; Function Attrs: nounwind uwtable
define internal void @_focuspeaking_switch_button_callback(ptr noundef %0, ptr noundef %1) #0 {
  %3 = alloca ptr, align 8
  %4 = alloca ptr, align 8
  %5 = alloca i32, align 4
  %6 = alloca i32, align 4
  %7 = alloca i32, align 4
  store ptr %0, ptr %3, align 8, !tbaa !6
  store ptr %1, ptr %4, align 8, !tbaa !99
  %8 = load ptr, ptr getelementptr inbounds nuw (%struct.darktable_t, ptr @darktable, i32 0, i32 14), align 8, !tbaa !24
  %9 = getelementptr inbounds nuw %struct.dt_gui_gtk_t, ptr %8, i32 0, i32 27
  %10 = call i32 @dt_pthread_mutex_lock(ptr noundef %9)
  call void @llvm.lifetime.start.p0(i64 4, ptr %5) #15
  %11 = load ptr, ptr getelementptr inbounds nuw (%struct.darktable_t, ptr @darktable, i32 0, i32 14), align 8, !tbaa !24
  %12 = getelementptr inbounds nuw %struct.dt_gui_gtk_t, ptr %11, i32 0, i32 11
  %13 = load i32, ptr %12, align 8, !tbaa !73
  store i32 %13, ptr %5, align 4, !tbaa !17
  %14 = load ptr, ptr getelementptr inbounds nuw (%struct.darktable_t, ptr @darktable, i32 0, i32 14), align 8, !tbaa !24
  %15 = getelementptr inbounds nuw %struct.dt_gui_gtk_t, ptr %14, i32 0, i32 27
  %16 = call i32 @dt_pthread_mutex_unlock(ptr noundef %15)
  call void @llvm.lifetime.start.p0(i64 4, ptr %6) #15
  %17 = load ptr, ptr %3, align 8, !tbaa !6
  %18 = call i64 @gtk_toggle_button_get_type() #16
  %19 = call ptr @g_type_check_instance_cast(ptr noundef %17, i64 noundef %18)
  %20 = call i32 @gtk_toggle_button_get_active(ptr noundef %19)
  store i32 %20, ptr %6, align 4, !tbaa !17
  %21 = load i32, ptr %5, align 4, !tbaa !17
  %22 = load i32, ptr %6, align 4, !tbaa !17
  %23 = icmp eq i32 %21, %22
  br i1 %23, label %24, label %25

24:                                               ; preds = %2
  store i32 1, ptr %7, align 4
  br label %62

25:                                               ; preds = %2
  %26 = load ptr, ptr getelementptr inbounds nuw (%struct.darktable_t, ptr @darktable, i32 0, i32 14), align 8, !tbaa !24
  %27 = getelementptr inbounds nuw %struct.dt_gui_gtk_t, ptr %26, i32 0, i32 27
  %28 = call i32 @dt_pthread_mutex_lock(ptr noundef %27)
  %29 = load i32, ptr %6, align 4, !tbaa !17
  %30 = load ptr, ptr getelementptr inbounds nuw (%struct.darktable_t, ptr @darktable, i32 0, i32 14), align 8, !tbaa !24
  %31 = getelementptr inbounds nuw %struct.dt_gui_gtk_t, ptr %30, i32 0, i32 11
  store i32 %29, ptr %31, align 8, !tbaa !73
  %32 = load ptr, ptr getelementptr inbounds nuw (%struct.darktable_t, ptr @darktable, i32 0, i32 14), align 8, !tbaa !24
  %33 = getelementptr inbounds nuw %struct.dt_gui_gtk_t, ptr %32, i32 0, i32 27
  %34 = call i32 @dt_pthread_mutex_unlock(ptr noundef %33)
  %35 = load ptr, ptr %3, align 8, !tbaa !6
  call void @gtk_widget_queue_draw(ptr noundef %35)
  %36 = load ptr, ptr getelementptr inbounds nuw (%struct.darktable_t, ptr @darktable, i32 0, i32 9), align 8, !tbaa !177
  call void @dt_dev_reprocess_center(ptr noundef %36)
  br label %37

37:                                               ; preds = %25
  %38 = load i32, ptr getelementptr inbounds nuw (%struct.darktable_t, ptr @darktable, i32 0, i32 53), align 8, !tbaa !145
  %39 = and i32 %38, 1
  %40 = icmp ne i32 %39, 0
  br i1 %40, label %41, label %58

41:                                               ; preds = %37
  %42 = load i32, ptr getelementptr inbounds ([47 x i32], ptr getelementptr inbounds nuw (%struct.darktable_t, ptr @darktable, i32 0, i32 54), i64 0, i64 20), align 4, !tbaa !17
  %43 = icmp ne i32 %42, 0
  br i1 %43, label %44, label %58

44:                                               ; preds = %41
  br label %45

45:                                               ; preds = %44
  %46 = load i32, ptr getelementptr inbounds nuw (%struct.darktable_t, ptr @darktable, i32 0, i32 2), align 8, !tbaa !113
  %47 = and i32 1048576, %46
  %48 = icmp ne i32 %47, 0
  br i1 %48, label %49, label %55

49:                                               ; preds = %45
  %50 = load i32, ptr getelementptr inbounds nuw (%struct.darktable_t, ptr @darktable, i32 0, i32 2), align 8, !tbaa !113
  %51 = xor i32 %50, -1
  %52 = and i32 0, %51
  %53 = icmp ne i32 %52, 0
  br i1 %53, label %55, label %54

54:                                               ; preds = %49
  call void (ptr, ...) @dt_print_ext(ptr noundef @.str.219, ptr noundef @.str.220, ptr noundef @.str.221, i32 noundef 229, ptr noundef @__FUNCTION__._focuspeaking_switch_button_callback)
  br label %55

55:                                               ; preds = %54, %49, %45
  br label %56

56:                                               ; preds = %55
  br label %57

57:                                               ; preds = %56
  br label %58

58:                                               ; preds = %57, %41, %37
  %59 = load ptr, ptr getelementptr inbounds nuw (%struct.darktable_t, ptr @darktable, i32 0, i32 13), align 8, !tbaa !146
  call void (ptr, i32, ...) @dt_control_signal_raise(ptr noundef %59, i32 noundef 20, i32 noundef -1)
  br label %60

60:                                               ; preds = %58
  br label %61

61:                                               ; preds = %60
  store i32 0, ptr %7, align 4
  br label %62

62:                                               ; preds = %61, %24
  call void @llvm.lifetime.end.p0(i64 4, ptr %6) #15
  call void @llvm.lifetime.end.p0(i64 4, ptr %5) #15
  %63 = load i32, ptr %7, align 4
  switch i32 %63, label %65 [
    i32 0, label %64
    i32 1, label %64
  ]

64:                                               ; preds = %62, %62
  ret void

65:                                               ; preds = %62
  unreachable
}